target datalayout = "e-m:e-p270:32:32-p271:32:32-p272:64:64-i64:64-i128:128-f80:128-n8:16:32:64-S128"
target triple = "x86_64-pc-linux-gnu"

%struct.cl_fmap = type { ptr, ptr, ptr, i64, i64, i64, i64, i8, i8, i8, i64, i64, i64, i64, ptr, ptr, ptr, ptr, ptr, ptr, ptr, i8, [16 x i8], i8, [20 x i8], i8, [32 x i8], ptr, ptr }
%struct.cl_engine = type { i32, i32, i32, [2 x i32], i32, i32, i32, ptr, i32, i64, i32, i32, i64, i64, i32, i32, i32, i32, ptr, ptr, ptr, ptr, ptr, ptr, ptr, ptr, ptr, ptr, ptr, ptr, ptr, ptr, ptr, ptr, ptr, ptr, ptr, i64, ptr, %struct.crtmgr, ptr, ptr, ptr, ptr, ptr, ptr, ptr, ptr, ptr, ptr, ptr, ptr, ptr, ptr, ptr, ptr, ptr, %struct.cli_all_bc, [7 x ptr], [7 x i32], i32, i32, i32, i32, i64, i64, i64, i64, i64, ptr, ptr, ptr, ptr, ptr, ptr, ptr, ptr, ptr, i32, i32, i32, i64, i64, i64, ptr }
%struct.crtmgr = type { ptr, i32 }
%struct.cli_all_bc = type { ptr, i32, ptr, %struct.cli_environment, i32 }
%struct.cli_environment = type { i32, i32, i32, i32, i32, i32, i32, [65 x i8], [65 x i8], [65 x i8], [65 x i8], [65 x i8], [65 x i8], [65 x i8], i8, i8, i8, i8, i8, i8, i8, i8, i8 }
%struct.cl_scan_options = type { i32, i32, i32, i32, i32 }

@.str.66 = private unnamed_addr constant [39 x i8] c"Heuristics.Limits.Exceeded.MaxFileSize\00", align 1
@.str.67 = private unnamed_addr constant [60 x i8] c"cl_scandesc_callback: File too large (%zu bytes), ignoring\0A\00", align 1

; Function Attrs: nounwind uwtable
define i32 @cl_scanmap_callback(ptr noundef %0, ptr noundef %1, ptr noundef %2, ptr noundef %3, ptr noundef %4, ptr noundef %5, ptr noundef %6) #0 {
  %8 = alloca i32, align 4
  %9 = alloca ptr, align 8
  %10 = alloca ptr, align 8
  %11 = alloca ptr, align 8
  %12 = alloca ptr, align 8
  %13 = alloca ptr, align 8
  %14 = alloca ptr, align 8
  %15 = alloca ptr, align 8
  store ptr %0, ptr %9, align 8
  store ptr %1, ptr %10, align 8
  store ptr %2, ptr %11, align 8
  store ptr %3, ptr %12, align 8
  store ptr %4, ptr %13, align 8
  store ptr %5, ptr %14, align 8
  store ptr %6, ptr %15, align 8
  %16 = load ptr, ptr %13, align 8
  %17 = getelementptr inbounds %struct.cl_engine, ptr %16, i32 0, i32 13
  %18 = load i64, ptr %17, align 8
  %19 = icmp ugt i64 %18, 0
  br i1 %19, label %20, label %56

20:                                               ; preds = %7
  %21 = load ptr, ptr %9, align 8
  %22 = getelementptr inbounds %struct.cl_fmap, ptr %21, i32 0, i32 13
  %23 = load i64, ptr %22, align 8
  %24 = load ptr, ptr %13, align 8
  %25 = getelementptr inbounds %struct.cl_engine, ptr %24, i32 0, i32 13
  %26 = load i64, ptr %25, align 8
  %27 = icmp ugt i64 %23, %26
  br i1 %27, label %28, label %56

28:                                               ; preds = %20
  %29 = load ptr, ptr %9, align 8
  %30 = getelementptr inbounds %struct.cl_fmap, ptr %29, i32 0, i32 13
  %31 = load i64, ptr %30, align 8
  call void (ptr, ...) @cli_dbgmsg(ptr noundef @.str.67, i64 noundef %31)
  %32 = load ptr, ptr %14, align 8
  %33 = getelementptr inbounds %struct.cl_scan_options, ptr %32, i32 0, i32 2
  %34 = load i32, ptr %33, align 4
  %35 = and i32 %34, 4
  %36 = icmp ne i32 %35, 0
  br i1 %36, label %37, label %55

37:                                               ; preds = %28
  %38 = load ptr, ptr %13, align 8
  %39 = getelementptr inbounds %struct.cl_engine, ptr %38, i32 0, i32 44
  %40 = load ptr, ptr %39, align 8
  %41 = icmp ne ptr %40, null
  br i1 %41, label %42, label %54

42:                                               ; preds = %37
  %43 = load ptr, ptr %13, align 8
  %44 = getelementptr inbounds %struct.cl_engine, ptr %43, i32 0, i32 44
  %45 = load ptr, ptr %44, align 8
  %46 = load ptr, ptr %9, align 8
  %47 = call i32 @fmap_fd(ptr noundef %46)
  %48 = load ptr, ptr %15, align 8
  call void %45(i32 noundef %47, ptr noundef @.str.66, ptr noundef %48)
  %49 = load ptr, ptr %11, align 8
  %50 = icmp ne ptr %49, null
  br i1 %50, label %51, label %53

51:                                               ; preds = %42
  %52 = load ptr, ptr %11, align 8
  store ptr @.str.66, ptr %52, align 8
  br label %53

53:                                               ; preds = %51, %42
  br label %54

54:                                               ; preds = %53, %37
  store i32 1, ptr %8, align 4
  br label %80

55:                                               ; preds = %28
  store i32 0, ptr %8, align 4
  br label %80

56:                                               ; preds = %20, %7
  %57 = load ptr, ptr %10, align 8
  %58 = icmp ne ptr null, %57
  br i1 %58, label %59, label %71

59:                                               ; preds = %56
  %60 = load ptr, ptr %9, align 8
  %61 = getelementptr inbounds %struct.cl_fmap, ptr %60, i32 0, i32 28
  %62 = load ptr, ptr %61, align 8
  %63 = icmp eq ptr %62, null
  br i1 %63, label %64, label %71

64:                                               ; preds = %59
  %65 = load ptr, ptr %10, align 8
  %66 = load ptr, ptr %10, align 8
  %67 = call i64 @strlen(ptr noundef %66) #9
  %68 = load ptr, ptr %9, align 8
  %69 = getelementptr inbounds %struct.cl_fmap, ptr %68, i32 0, i32 28
  %70 = call i32 @cli_basename(ptr noundef %65, i64 noundef %67, ptr noundef %69)
  br label %71

71:                                               ; preds = %64, %59, %56
  %72 = load ptr, ptr %9, align 8
  %73 = load ptr, ptr %10, align 8
  %74 = load ptr, ptr %11, align 8
  %75 = load ptr, ptr %12, align 8
  %76 = load ptr, ptr %13, align 8
  %77 = load ptr, ptr %14, align 8
  %78 = load ptr, ptr %15, align 8
  %79 = call i32 @scan_common(ptr noundef %72, ptr noundef %73, ptr noundef %74, ptr noundef %75, ptr noundef %76, ptr noundef %77, ptr noundef %78)
  store i32 %79, ptr %8, align 4
  br label %80

80:                                               ; preds = %71, %55, %54
  %81 = load i32, ptr %8, align 4
  ret i32 %81
}