; Function Attrs: nounwind uwtable
define i32 @cl_scanmap_callback(ptr noundef %0, ptr noundef %1, ptr noundef writeonly %2, ptr noundef %3, ptr noundef %4, ptr noundef %5, ptr noundef %6) local_unnamed_addr #0 {
  %8 = getelementptr inbounds nuw i8, ptr %4, i64 72
  %9 = load i64, ptr %8, align 8
  %.not = icmp eq i64 %9, 0
  br i1 %.not, label %24, label %10

10:                                               ; preds = %7
  %11 = getelementptr inbounds nuw i8, ptr %0, i64 88
  %12 = load i64, ptr %11, align 8
  %13 = icmp ugt i64 %12, %9
  br i1 %13, label %14, label %24

14:                                               ; preds = %10
  tail call void (ptr, ...) @cli_dbgmsg(ptr noundef nonnull @.str.67, i64 noundef %12) #16
  %15 = getelementptr inbounds nuw i8, ptr %5, i64 8
  %16 = load i32, ptr %15, align 4
  %17 = and i32 %16, 4
  %.not29 = icmp eq i32 %17, 0
  br i1 %.not29, label %34, label %18

18:                                               ; preds = %14
  %19 = getelementptr inbounds nuw i8, ptr %4, i64 312
  %20 = load ptr, ptr %19, align 8
  %.not30 = icmp eq ptr %20, null
  br i1 %.not30, label %34, label %21

21:                                               ; preds = %18
  %22 = tail call i32 @fmap_fd(ptr noundef nonnull %0) #16
  tail call void %20(i32 noundef %22, ptr noundef nonnull @.str.66, ptr noundef %6) #16
  %.not31 = icmp eq ptr %2, null
  br i1 %.not31, label %34, label %23

23:                                               ; preds = %21
  store ptr @.str.66, ptr %2, align 8
  br label %34

24:                                               ; preds = %10, %7
  %.not28 = icmp eq ptr %1, null
  br i1 %.not28, label %32, label %25

25:                                               ; preds = %24
  %26 = getelementptr inbounds nuw i8, ptr %0, i64 232
  %27 = load ptr, ptr %26, align 8
  %28 = icmp eq ptr %27, null
  br i1 %28, label %29, label %32

29:                                               ; preds = %25
  %30 = tail call i64 @strlen(ptr noundef nonnull dereferenceable(1) %1) #17
  %31 = tail call i32 @cli_basename(ptr noundef nonnull %1, i64 noundef %30, ptr noundef nonnull %26) #16
  br label %32

32:                                               ; preds = %29, %25, %24
  %33 = tail call fastcc i32 @scan_common(ptr noundef %0, ptr noundef %1, ptr noundef %2, ptr noundef %3, ptr noundef nonnull %4, ptr noundef %5, ptr noundef %6)
  br label %34

34:                                               ; preds = %14, %18, %23, %21, %32
  %.0 = phi i32 [ %33, %32 ], [ 1, %21 ], [ 1, %23 ], [ 1, %18 ], [ 0, %14 ]
  ret i32 %.0
}